; Function Attrs: mustprogress sspstrong uwtable
define noundef zeroext i1 @_ZN3tbb6detail2r17upgradeERNS0_2d112rtm_rw_mutex11scoped_lockE(ptr noundef nonnull align 8 dereferenceable(12) %0) local_unnamed_addr #0 personality ptr @__gxx_personality_v0 {
  %2 = getelementptr inbounds nuw i8, ptr %0, i64 8
  %3 = load i32, ptr %2, align 8, !tbaa !14
  switch i32 %3, label %_ZN3tbb6detail2r117rtm_rw_mutex_impl7upgradeERNS0_2d112rtm_rw_mutex11scoped_lockE.exit [
    i32 3, label %4
    i32 1, label %9
  ]

4:                                                ; preds = %1
  store i32 4, ptr %2, align 8, !tbaa !14
  %5 = load ptr, ptr %0, align 8, !tbaa !19
  %6 = tail call noundef zeroext i1 @_ZN3tbb6detail2d113spin_rw_mutex7upgradeEv(ptr noundef nonnull align 8 dereferenceable(8) %5)
  %7 = load ptr, ptr %0, align 8, !tbaa !19
  %8 = getelementptr inbounds nuw i8, ptr %7, i64 64
  store atomic i8 1, ptr %8 monotonic, align 1
  br label %_ZN3tbb6detail2r117rtm_rw_mutex_impl7upgradeERNS0_2d112rtm_rw_mutex11scoped_lockE.exit

9:                                                ; preds = %1
  %10 = load ptr, ptr %0, align 8, !tbaa !19
  %11 = load atomic i64, ptr %10 acquire, align 8
  %.not.i = icmp eq i64 %11, 0
  br i1 %.not.i, label %23, label %12

12:                                               ; preds = %9
  %13 = load i32, ptr %2, align 8, !tbaa !14
  switch i32 %13, label %_ZN3tbb6detail2r117rtm_rw_mutex_impl7releaseERNS0_2d112rtm_rw_mutex11scoped_lockE.exit.i [
    i32 2, label %14
    i32 1, label %14
    i32 3, label %15
    i32 4, label %18
  ]

14:                                               ; preds = %12, %12
  tail call void @llvm.x86.xend()
  br label %.sink.split.i.i

15:                                               ; preds = %12
  %16 = load ptr, ptr %0, align 8, !tbaa !19
  %17 = atomicrmw sub ptr %16, i64 4 seq_cst, align 8
  br label %.sink.split.i.i

18:                                               ; preds = %12
  %19 = load ptr, ptr %0, align 8, !tbaa !19
  %20 = getelementptr inbounds nuw i8, ptr %19, i64 64
  store atomic i8 0, ptr %20 monotonic, align 1
  %21 = load ptr, ptr %0, align 8, !tbaa !19
  %22 = atomicrmw and ptr %21, i64 -4 seq_cst, align 8
  br label %.sink.split.i.i

.sink.split.i.i:                                  ; preds = %18, %15, %14
  store ptr null, ptr %0, align 8, !tbaa !19
  br label %_ZN3tbb6detail2r117rtm_rw_mutex_impl7releaseERNS0_2d112rtm_rw_mutex11scoped_lockE.exit.i

_ZN3tbb6detail2r117rtm_rw_mutex_impl7releaseERNS0_2d112rtm_rw_mutex11scoped_lockE.exit.i: ; preds = %.sink.split.i.i, %12
  store i32 0, ptr %2, align 8, !tbaa !14
  tail call void @_ZN3tbb6detail2r117rtm_rw_mutex_impl14acquire_writerERNS0_2d112rtm_rw_mutexERNS4_11scoped_lockEb(ptr noundef nonnull align 128 dereferenceable(65) %10, ptr noundef nonnull align 8 dereferenceable(12) %0, i1 noundef zeroext false)
  br label %_ZN3tbb6detail2r117rtm_rw_mutex_impl7upgradeERNS0_2d112rtm_rw_mutex11scoped_lockE.exit

23:                                               ; preds = %9
  store i32 2, ptr %2, align 8, !tbaa !14
  br label %_ZN3tbb6detail2r117rtm_rw_mutex_impl7upgradeERNS0_2d112rtm_rw_mutex11scoped_lockE.exit

_ZN3tbb6detail2r117rtm_rw_mutex_impl7upgradeERNS0_2d112rtm_rw_mutex11scoped_lockE.exit: ; preds = %1, %4, %_ZN3tbb6detail2r117rtm_rw_mutex_impl7releaseERNS0_2d112rtm_rw_mutex11scoped_lockE.exit.i, %23
  %.0.i = phi i1 [ %6, %4 ], [ true, %23 ], [ false, %_ZN3tbb6detail2r117rtm_rw_mutex_impl7releaseERNS0_2d112rtm_rw_mutex11scoped_lockE.exit.i ], [ false, %1 ]
  ret i1 %.0.i
}